; Function Attrs: mustprogress uwtable
define noundef zeroext i1 @_ZN32pxrInternal_v0_24__pxrReserved__8JsWriter9EndObjectEv(ptr noundef nonnull readonly align 8 captures(none) dereferenceable(8) %0) local_unnamed_addr #3 align 2 {
  %2 = load ptr, ptr %0, align 8
  %.val = load ptr, ptr %2, align 8
  %3 = load ptr, ptr %.val, align 8
  %4 = getelementptr inbounds nuw i8, ptr %3, i64 96
  %5 = load ptr, ptr %4, align 8
  %6 = tail call noundef zeroext i1 %5(ptr noundef nonnull align 8 dereferenceable(8) %.val)
  ret i1 %6
}